target datalayout = "e-m:e-p270:32:32-p271:32:32-p272:64:64-i64:64-i128:128-f80:128-n8:16:32:64-S128"
target triple = "x86_64-pc-linux-gnu"

%"class.boost::core::basic_string_view" = type { ptr, i64 }
%"class.boost::urls::pct_string_view" = type { %"class.boost::urls::grammar::string_view_base", i64 }
%"class.boost::urls::grammar::string_view_base" = type { %"class.boost::core::basic_string_view" }
%"struct.boost::urls::detail::segments_iter_impl" = type { [8 x i8], %"class.boost::urls::detail::path_ref", i64, i64, i64, i64, %"class.boost::urls::pct_string_view" }
%"class.boost::urls::detail::path_ref" = type { ptr, ptr, i64, i64, i64 }

; Function Attrs: mustprogress nounwind uwtable
define linkonce_odr hidden void @_ZN5boost4core17basic_string_viewIcEC2Ev(ptr noundef nonnull align 8 dereferenceable(16) %0) unnamed_addr #2 comdat align 2 {
  %2 = alloca ptr, align 8
  store ptr %0, ptr %2, align 8, !tbaa !3
  %3 = load ptr, ptr %2, align 8
  %4 = getelementptr inbounds nuw %"class.boost::core::basic_string_view", ptr %3, i32 0, i32 0
  store ptr null, ptr %4, align 8, !tbaa !27
  %5 = getelementptr inbounds nuw %"class.boost::core::basic_string_view", ptr %3, i32 0, i32 1
  store i64 0, ptr %5, align 8, !tbaa !28
  ret void
}

; Function Attrs: mustprogress nounwind uwtable
define linkonce_odr hidden void @_ZN5boost4urls7grammar16string_view_baseC2Ev(ptr noundef nonnull align 8 dereferenceable(16) %0) unnamed_addr #2 comdat align 2 {
  %2 = alloca ptr, align 8
  store ptr %0, ptr %2, align 8, !tbaa !3
  %3 = load ptr, ptr %2, align 8
  %4 = getelementptr inbounds nuw %"class.boost::urls::grammar::string_view_base", ptr %3, i32 0, i32 0
  call void @_ZN5boost4core17basic_string_viewIcEC2Ev(ptr noundef nonnull align 8 dereferenceable(16) %4) #7
  ret void
}

; Function Attrs: mustprogress nounwind uwtable
define linkonce_odr hidden void @_ZN5boost4urls15pct_string_viewC2Ev(ptr noundef nonnull align 8 dereferenceable(24) %0) unnamed_addr #2 comdat align 2 {
  %2 = alloca ptr, align 8
  store ptr %0, ptr %2, align 8, !tbaa !3
  %3 = load ptr, ptr %2, align 8
  call void @_ZN5boost4urls7grammar16string_view_baseC2Ev(ptr noundef nonnull align 8 dereferenceable(16) %3) #7
  %4 = getelementptr inbounds nuw %"class.boost::urls::pct_string_view", ptr %3, i32 0, i32 1
  store i64 0, ptr %4, align 8, !tbaa !17
  ret void
}

; Function Attrs: mustprogress nounwind uwtable
define hidden void @_ZN5boost4urls6detail18segments_iter_implC2ERKNS1_8path_refEi(ptr noundef nonnull align 8 dereferenceable(104) %0, ptr noundef nonnull align 8 dereferenceable(40) %1, i32 noundef %2) unnamed_addr #2 align 2 {
  %4 = alloca ptr, align 8
  %5 = alloca ptr, align 8
  %6 = alloca i32, align 4
  store ptr %0, ptr %4, align 8, !tbaa !3
  store ptr %1, ptr %5, align 8, !tbaa !3
  store i32 %2, ptr %6, align 4, !tbaa !23
  %7 = load ptr, ptr %4, align 8
  %8 = getelementptr inbounds nuw %"struct.boost::urls::detail::segments_iter_impl", ptr %7, i32 0, i32 1
  %9 = load ptr, ptr %5, align 8, !tbaa !3
  call void @llvm.memcpy.p0.p0.i64(ptr align 8 %8, ptr align 8 %9, i64 40, i1 false)
  %10 = getelementptr inbounds nuw %"struct.boost::urls::detail::segments_iter_impl", ptr %7, i32 0, i32 2
  %11 = getelementptr inbounds nuw %"struct.boost::urls::detail::segments_iter_impl", ptr %7, i32 0, i32 1
  %12 = call noundef i64 @_ZNK5boost4urls6detail8path_ref4sizeEv(ptr noundef nonnull align 8 dereferenceable(40) %11) #7
  store i64 %12, ptr %10, align 8, !tbaa !7
  %13 = getelementptr inbounds nuw %"struct.boost::urls::detail::segments_iter_impl", ptr %7, i32 0, i32 3
  %14 = getelementptr inbounds nuw %"struct.boost::urls::detail::segments_iter_impl", ptr %7, i32 0, i32 1
  %15 = call noundef i64 @_ZNK5boost4urls6detail8path_ref4sizeEv(ptr noundef nonnull align 8 dereferenceable(40) %14) #7
  store i64 %15, ptr %13, align 8, !tbaa !14
  %16 = getelementptr inbounds nuw %"struct.boost::urls::detail::segments_iter_impl", ptr %7, i32 0, i32 4
  %17 = getelementptr inbounds nuw %"struct.boost::urls::detail::segments_iter_impl", ptr %7, i32 0, i32 1
  %18 = call noundef i64 @_ZNK5boost4urls6detail8path_ref4nsegEv(ptr noundef nonnull align 8 dereferenceable(40) %17) #7
  store i64 %18, ptr %16, align 8, !tbaa !15
  %19 = getelementptr inbounds nuw %"struct.boost::urls::detail::segments_iter_impl", ptr %7, i32 0, i32 5
  store i64 0, ptr %19, align 8, !tbaa !16
  %20 = getelementptr inbounds nuw %"struct.boost::urls::detail::segments_iter_impl", ptr %7, i32 0, i32 6
  call void @_ZN5boost4urls15pct_string_viewC2Ev(ptr noundef nonnull align 8 dereferenceable(24) %20) #7
  ret void
}