; Function Attrs: mustprogress nounwind uwtable
define hidden void @_ZN5boost4urls6detail18segments_iter_implC2ERKNS1_8path_refEi(ptr noundef nonnull align 8 dereferenceable(104) %0, ptr nocapture noundef nonnull readonly align 8 dereferenceable(40) %1, i32 %2) unnamed_addr #3 align 2 {
  %4 = getelementptr inbounds nuw i8, ptr %0, i64 8
  tail call void @llvm.memcpy.p0.p0.i64(ptr noundef nonnull align 8 dereferenceable(40) %4, ptr noundef nonnull align 8 dereferenceable(40) %1, i64 40, i1 false)
  %5 = getelementptr inbounds nuw i8, ptr %0, i64 48
  %6 = tail call noundef i64 @_ZNK5boost4urls6detail8path_ref4sizeEv(ptr noundef nonnull align 8 dereferenceable(40) %4) #8
  store i64 %6, ptr %5, align 8, !tbaa !10
  %7 = getelementptr inbounds nuw i8, ptr %0, i64 56
  %8 = tail call noundef i64 @_ZNK5boost4urls6detail8path_ref4sizeEv(ptr noundef nonnull align 8 dereferenceable(40) %4) #8
  store i64 %8, ptr %7, align 8, !tbaa !19
  %9 = getelementptr inbounds nuw i8, ptr %0, i64 64
  %10 = tail call noundef i64 @_ZNK5boost4urls6detail8path_ref4nsegEv(ptr noundef nonnull align 8 dereferenceable(40) %4) #8
  store i64 %10, ptr %9, align 8, !tbaa !20
  %11 = getelementptr inbounds nuw i8, ptr %0, i64 72
  tail call void @llvm.memset.p0.i64(ptr noundef nonnull align 8 dereferenceable(32) %11, i8 0, i64 32, i1 false)
  ret void
}